; Function Attrs: nofree nounwind memory(read, argmem: readwrite, inaccessiblemem: none) uwtable
define hidden zeroext i16 @Curl_sasl_decode_mech(ptr noundef readonly captures(none) %0, i64 noundef %1, ptr noundef writeonly %2) local_unnamed_addr #2 {
  %.not41 = icmp eq ptr %2, null
  br i1 %.not41, label %.split.us, label %.split

.split.us:                                        ; preds = %3, %16
  %indvars.iv61 = phi i64 [ %indvars.iv.next62, %16 ], [ 0, %3 ]
  %4 = phi ptr [ %18, %16 ], [ @.str.8, %3 ]
  %5 = phi ptr [ %17, %16 ], [ @mechtable, %3 ]
  %6 = getelementptr inbounds nuw i8, ptr %5, i64 8
  %7 = load i64, ptr %6, align 8, !tbaa !3
  %.not39.us = icmp ult i64 %1, %7
  br i1 %.not39.us, label %16, label %8

8:                                                ; preds = %.split.us
  %bcmp.us = tail call i32 @bcmp(ptr %0, ptr nonnull %4, i64 %7)
  %.not40.us = icmp eq i32 %bcmp.us, 0
  br i1 %.not40.us, label %9, label %16

9:                                                ; preds = %8
  %10 = icmp eq i64 %1, %7
  br i1 %10, label %.loopexit.sink.split, label %11

11:                                               ; preds = %9
  %12 = getelementptr inbounds nuw i8, ptr %0, i64 %7
  %13 = load i8, ptr %12, align 1, !tbaa !11
  %.fr42.us = freeze i8 %13
  %14 = add i8 %.fr42.us, -91
  %or.cond.us = icmp ult i8 %14, -26
  %15 = add i8 %.fr42.us, -58
  %or.cond5.us = icmp ult i8 %15, -10
  %or.cond43.us = and i1 %or.cond.us, %or.cond5.us
  br i1 %or.cond43.us, label %switch.early.test.us, label %16

switch.early.test.us:                             ; preds = %11
  switch i8 %.fr42.us, label %.loopexit.sink.split [
    i8 95, label %16
    i8 45, label %16
  ]

16:                                               ; preds = %switch.early.test.us, %switch.early.test.us, %11, %8, %.split.us
  %indvars.iv.next62 = add nuw nsw i64 %indvars.iv61, 1
  %17 = getelementptr inbounds nuw [12 x %struct.anon.0], ptr @mechtable, i64 0, i64 %indvars.iv.next62
  %18 = load ptr, ptr %17, align 8, !tbaa !12
  %exitcond64 = icmp eq i64 %indvars.iv.next62, 11
  br i1 %exitcond64, label %.loopexit, label %.split.us, !llvm.loop !13

.split:                                           ; preds = %3, %31
  %indvars.iv = phi i64 [ %indvars.iv.next, %31 ], [ 0, %3 ]
  %19 = phi ptr [ %33, %31 ], [ @.str.8, %3 ]
  %20 = phi ptr [ %32, %31 ], [ @mechtable, %3 ]
  %21 = getelementptr inbounds nuw i8, ptr %20, i64 8
  %22 = load i64, ptr %21, align 8, !tbaa !3
  %.not39 = icmp ult i64 %1, %22
  br i1 %.not39, label %31, label %23

23:                                               ; preds = %.split
  %bcmp = tail call i32 @bcmp(ptr %0, ptr nonnull %19, i64 %22)
  %.not40 = icmp eq i32 %bcmp, 0
  br i1 %.not40, label %24, label %31

24:                                               ; preds = %23
  store i64 %22, ptr %2, align 8, !tbaa !15
  %25 = icmp eq i64 %1, %22
  br i1 %25, label %.loopexit.sink.split, label %26

26:                                               ; preds = %24
  %27 = getelementptr inbounds nuw i8, ptr %0, i64 %22
  %28 = load i8, ptr %27, align 1, !tbaa !11
  %.fr42 = freeze i8 %28
  %29 = add i8 %.fr42, -91
  %or.cond = icmp ult i8 %29, -26
  %30 = add i8 %.fr42, -58
  %or.cond5 = icmp ult i8 %30, -10
  %or.cond43 = and i1 %or.cond, %or.cond5
  br i1 %or.cond43, label %switch.early.test, label %31

switch.early.test:                                ; preds = %26
  switch i8 %.fr42, label %.loopexit.sink.split [
    i8 95, label %31
    i8 45, label %31
  ]

31:                                               ; preds = %switch.early.test, %switch.early.test, %.split, %23, %26
  %indvars.iv.next = add nuw nsw i64 %indvars.iv, 1
  %32 = getelementptr inbounds nuw [12 x %struct.anon.0], ptr @mechtable, i64 0, i64 %indvars.iv.next
  %33 = load ptr, ptr %32, align 8, !tbaa !12
  %exitcond = icmp eq i64 %indvars.iv.next, 11
  br i1 %exitcond, label %.loopexit, label %.split, !llvm.loop !13

.loopexit.sink.split:                             ; preds = %switch.early.test, %24, %switch.early.test.us, %9
  %.us-phi51.sink = phi ptr [ %5, %9 ], [ %5, %switch.early.test.us ], [ %20, %24 ], [ %20, %switch.early.test ]
  %34 = getelementptr inbounds nuw i8, ptr %.us-phi51.sink, i64 16
  %35 = load i16, ptr %34, align 8, !tbaa !16
  br label %.loopexit

.loopexit:                                        ; preds = %31, %16, %.loopexit.sink.split
  %.0 = phi i16 [ %35, %.loopexit.sink.split ], [ 0, %16 ], [ 0, %31 ]
  ret i16 %.0
}